; Function Attrs: mustprogress nofree norecurse nosync nounwind willreturn memory(read, argmem: readwrite, inaccessiblemem: none) uwtable
define range(i32 -1094995529, 1) i32 @ff_amf_read_null(ptr noundef captures(none) %0) local_unnamed_addr #4 {
  %2 = getelementptr inbounds nuw i8, ptr %0, i64 8
  %3 = load ptr, ptr %2, align 8, !tbaa !10
  %4 = load ptr, ptr %0, align 8, !tbaa !12
  %5 = ptrtoint ptr %3 to i64
  %6 = ptrtoint ptr %4 to i64
  %7 = sub i64 %5, %6
  %8 = icmp slt i64 %7, 1
  br i1 %8, label %bytestream2_get_byte.exit.thread, label %bytestream2_get_byte.exit

bytestream2_get_byte.exit.thread:                 ; preds = %1
  store ptr %3, ptr %0, align 8, !tbaa !12
  br label %11

bytestream2_get_byte.exit:                        ; preds = %1
  %9 = getelementptr inbounds nuw i8, ptr %4, i64 1
  store ptr %9, ptr %0, align 8, !tbaa !4
  %10 = load i8, ptr %4, align 1, !tbaa !9
  %.fr = freeze i8 %10
  %.not = icmp eq i8 %.fr, 5
  %spec.select = select i1 %.not, i32 0, i32 -1094995529
  br label %11

11:                                               ; preds = %bytestream2_get_byte.exit, %bytestream2_get_byte.exit.thread
  %12 = phi i32 [ -1094995529, %bytestream2_get_byte.exit.thread ], [ %spec.select, %bytestream2_get_byte.exit ]
  ret i32 %12
}